target datalayout = "e-m:e-p270:32:32-p271:32:32-p272:64:64-i64:64-i128:128-f80:128-n8:16:32:64-S128"
target triple = "x86_64-pc-linux-gnu"

%struct.lemon = type { ptr, ptr, ptr, i32, i32, i32, i32, i32, i32, i32, i32, i32, i32, i32, i32, ptr, i32, ptr, ptr, ptr, ptr, ptr, ptr, ptr, ptr, ptr, ptr, ptr, ptr, ptr, ptr, ptr, ptr, ptr, ptr, ptr, ptr, i32, i32, i32, i32, i32, i32, i32, i32, ptr }

@.str.133 = private unnamed_addr constant [11 x i8] c"#line %d \22\00", align 1
@.str.134 = private unnamed_addr constant [3 x i8] c"\22\0A\00", align 1

; Function Attrs: null_pointer_is_valid sspstrong uwtable
define hidden void @tplt_linedir(ptr noundef %0, i32 noundef %1, ptr noundef %2) #0 {
  %4 = alloca ptr, align 8
  %5 = alloca i32, align 4
  %6 = alloca ptr, align 8
  store ptr %0, ptr %4, align 8
  store i32 %1, ptr %5, align 4
  store ptr %2, ptr %6, align 8
  %7 = load ptr, ptr %4, align 8
  %8 = load i32, ptr %5, align 4
  %9 = call i32 (ptr, i32, ptr, ...) @__fprintf_chk(ptr noundef %7, i32 noundef 2, ptr noundef @.str.133, i32 noundef %8)
  br label %10

10:                                               ; preds = %22, %3
  %11 = load ptr, ptr %6, align 8
  %12 = load i8, ptr %11, align 1
  %13 = icmp ne i8 %12, 0
  br i1 %13, label %14, label %30

14:                                               ; preds = %10
  %15 = load ptr, ptr %6, align 8
  %16 = load i8, ptr %15, align 1
  %17 = sext i8 %16 to i32
  %18 = icmp eq i32 %17, 92
  br i1 %18, label %19, label %22

19:                                               ; preds = %14
  %20 = load ptr, ptr %4, align 8
  %21 = call i32 @putc(i32 noundef 92, ptr noundef %20)
  br label %22

22:                                               ; preds = %19, %14
  %23 = load ptr, ptr %6, align 8
  %24 = load i8, ptr %23, align 1
  %25 = sext i8 %24 to i32
  %26 = load ptr, ptr %4, align 8
  %27 = call i32 @putc(i32 noundef %25, ptr noundef %26)
  %28 = load ptr, ptr %6, align 8
  %29 = getelementptr i8, ptr %28, i32 1
  store ptr %29, ptr %6, align 8
  br label %10, !llvm.loop !208

30:                                               ; preds = %10
  %31 = load ptr, ptr %4, align 8
  %32 = call i32 (ptr, i32, ptr, ...) @__fprintf_chk(ptr noundef %31, i32 noundef 2, ptr noundef @.str.134)
  ret void
}

; Function Attrs: null_pointer_is_valid sspstrong uwtable
define hidden void @tplt_print(ptr noundef %0, ptr noundef %1, ptr noundef %2, ptr noundef %3) #0 {
  %5 = alloca ptr, align 8
  %6 = alloca ptr, align 8
  %7 = alloca ptr, align 8
  %8 = alloca ptr, align 8
  store ptr %0, ptr %5, align 8
  store ptr %1, ptr %6, align 8
  store ptr %2, ptr %7, align 8
  store ptr %3, ptr %8, align 8
  %9 = load ptr, ptr %7, align 8
  %10 = icmp eq ptr %9, null
  br i1 %10, label %11, label %12

11:                                               ; preds = %4
  br label %62

12:                                               ; preds = %4
  br label %13

13:                                               ; preds = %31, %12
  %14 = load ptr, ptr %7, align 8
  %15 = load i8, ptr %14, align 1
  %16 = icmp ne i8 %15, 0
  br i1 %16, label %17, label %34

17:                                               ; preds = %13
  %18 = load ptr, ptr %7, align 8
  %19 = load i8, ptr %18, align 1
  %20 = sext i8 %19 to i32
  %21 = load ptr, ptr %5, align 8
  %22 = call i32 @putc(i32 noundef %20, ptr noundef %21)
  %23 = load ptr, ptr %7, align 8
  %24 = load i8, ptr %23, align 1
  %25 = sext i8 %24 to i32
  %26 = icmp eq i32 %25, 10
  br i1 %26, label %27, label %31

27:                                               ; preds = %17
  %28 = load ptr, ptr %8, align 8
  %29 = load i32, ptr %28, align 4
  %30 = add i32 %29, 1
  store i32 %30, ptr %28, align 4
  br label %31

31:                                               ; preds = %27, %17
  %32 = load ptr, ptr %7, align 8
  %33 = getelementptr i8, ptr %32, i32 1
  store ptr %33, ptr %7, align 8
  br label %13, !llvm.loop !209

34:                                               ; preds = %13
  %35 = load ptr, ptr %7, align 8
  %36 = getelementptr i8, ptr %35, i64 -1
  %37 = load i8, ptr %36, align 1
  %38 = sext i8 %37 to i32
  %39 = icmp ne i32 %38, 10
  br i1 %39, label %40, label %46

40:                                               ; preds = %34
  %41 = load ptr, ptr %5, align 8
  %42 = call i32 @putc(i32 noundef 10, ptr noundef %41)
  %43 = load ptr, ptr %8, align 8
  %44 = load i32, ptr %43, align 4
  %45 = add i32 %44, 1
  store i32 %45, ptr %43, align 4
  br label %46

46:                                               ; preds = %40, %34
  %47 = load ptr, ptr %6, align 8
  %48 = getelementptr inbounds nuw %struct.lemon, ptr %47, i32 0, i32 44
  %49 = load i32, ptr %48, align 4
  %50 = icmp ne i32 %49, 0
  br i1 %50, label %61, label %51

51:                                               ; preds = %46
  %52 = load ptr, ptr %8, align 8
  %53 = load i32, ptr %52, align 4
  %54 = add i32 %53, 1
  store i32 %54, ptr %52, align 4
  %55 = load ptr, ptr %5, align 8
  %56 = load ptr, ptr %8, align 8
  %57 = load i32, ptr %56, align 4
  %58 = load ptr, ptr %6, align 8
  %59 = getelementptr inbounds nuw %struct.lemon, ptr %58, i32 0, i32 35
  %60 = load ptr, ptr %59, align 8
  call void @tplt_linedir(ptr noundef %55, i32 noundef %57, ptr noundef %60)
  br label %61

61:                                               ; preds = %51, %46
  br label %62

62:                                               ; preds = %61, %11
  ret void
}