; Function Attrs: null_pointer_is_valid sspstrong uwtable
define hidden void @tplt_print(ptr noundef %0, ptr noundef readonly captures(none) %1, ptr noundef readonly captures(address_is_null) %2, ptr noundef captures(none) %3) local_unnamed_addr #0 {
  %5 = icmp eq ptr %2, null
  br i1 %5, label %43, label %.preheader

.preheader:                                       ; preds = %4
  %6 = load i8, ptr %2, align 1
  %.not19 = icmp eq i8 %6, 0
  br i1 %.not19, label %._crit_edge, label %.lr.ph

.lr.ph:                                           ; preds = %.preheader, %15
  %7 = phi i8 [ %17, %15 ], [ %6, %.preheader ]
  %.020 = phi ptr [ %16, %15 ], [ %2, %.preheader ]
  %8 = sext i8 %7 to i32
  %9 = tail call i32 @putc(i32 noundef %8, ptr noundef %0)
  %10 = load i8, ptr %.020, align 1
  %11 = icmp eq i8 %10, 10
  br i1 %11, label %12, label %15

12:                                               ; preds = %.lr.ph
  %13 = load i32, ptr %3, align 4
  %14 = add i32 %13, 1
  store i32 %14, ptr %3, align 4
  br label %15

15:                                               ; preds = %12, %.lr.ph
  %16 = getelementptr i8, ptr %.020, i64 1
  %17 = load i8, ptr %16, align 1
  %.not = icmp eq i8 %17, 0
  br i1 %.not, label %._crit_edge, label %.lr.ph, !llvm.loop !218

._crit_edge:                                      ; preds = %15, %.preheader
  %.0.lcssa = phi ptr [ %2, %.preheader ], [ %16, %15 ]
  %18 = getelementptr i8, ptr %.0.lcssa, i64 -1
  %19 = load i8, ptr %18, align 1
  %.not17 = icmp eq i8 %19, 10
  br i1 %.not17, label %24, label %20

20:                                               ; preds = %._crit_edge
  %21 = tail call i32 @putc(i32 noundef 10, ptr noundef %0)
  %22 = load i32, ptr %3, align 4
  %23 = add i32 %22, 1
  store i32 %23, ptr %3, align 4
  br label %24

24:                                               ; preds = %20, %._crit_edge
  %25 = getelementptr inbounds nuw i8, ptr %1, i64 276
  %26 = load i32, ptr %25, align 4
  %.not18 = icmp eq i32 %26, 0
  br i1 %.not18, label %27, label %43

27:                                               ; preds = %24
  %28 = load i32, ptr %3, align 4
  %29 = add i32 %28, 1
  store i32 %29, ptr %3, align 4
  %30 = getelementptr inbounds nuw i8, ptr %1, i64 232
  %31 = load ptr, ptr %30, align 8
  %32 = tail call i32 (ptr, i32, ptr, ...) @__fprintf_chk(ptr noundef %0, i32 noundef 2, ptr noundef nonnull @.str.133, i32 noundef %29)
  br label %33

33:                                               ; preds = %37, %27
  %.0.i = phi ptr [ %31, %27 ], [ %41, %37 ]
  %34 = load i8, ptr %.0.i, align 1
  switch i8 %34, label %37 [
    i8 0, label %tplt_linedir.exit
    i8 92, label %35
  ]

35:                                               ; preds = %33
  %36 = tail call i32 @putc(i32 noundef 92, ptr noundef %0)
  %.pre.i = load i8, ptr %.0.i, align 1
  br label %37

37:                                               ; preds = %35, %33
  %38 = phi i8 [ %34, %33 ], [ %.pre.i, %35 ]
  %39 = sext i8 %38 to i32
  %40 = tail call i32 @putc(i32 noundef %39, ptr noundef %0)
  %41 = getelementptr i8, ptr %.0.i, i64 1
  br label %33, !llvm.loop !217

tplt_linedir.exit:                                ; preds = %33
  %42 = tail call i32 (ptr, i32, ptr, ...) @__fprintf_chk(ptr noundef %0, i32 noundef 2, ptr noundef nonnull @.str.134)
  br label %43

43:                                               ; preds = %24, %tplt_linedir.exit, %4
  ret void
}